; Function Attrs: nounwind uwtable
define internal range(i32 -1, 2) i32 @H5G__compact_remove_common_cb(ptr noundef %0, i32 %1, ptr noundef readonly captures(none) %2) #0 {
  %4 = load i8, ptr @H5G_init_g, align 1, !tbaa !3, !range !7, !noundef !8
  %5 = trunc nuw i8 %4 to i1
  %6 = load i8, ptr @H5_libterm_g, align 1, !range !7
  %7 = trunc nuw i8 %6 to i1
  %8 = xor i1 %7, true
  %9 = select i1 %5, i1 true, i1 %8
  br i1 %9, label %10, label %27, !prof !9

10:                                               ; preds = %3
  %11 = getelementptr inbounds nuw i8, ptr %0, i64 24
  %12 = load ptr, ptr %11, align 8, !tbaa !17
  %13 = getelementptr inbounds nuw i8, ptr %2, i64 16
  %14 = load ptr, ptr %13, align 8, !tbaa !36
  %15 = tail call i32 @strcmp(ptr noundef nonnull dereferenceable(1) %12, ptr noundef nonnull dereferenceable(1) %14) #9
  %16 = icmp eq i32 %15, 0
  br i1 %16, label %17, label %27

17:                                               ; preds = %10
  %18 = load ptr, ptr %2, align 8, !tbaa !32
  %19 = getelementptr inbounds nuw i8, ptr %2, i64 8
  %20 = load ptr, ptr %19, align 8, !tbaa !35
  %21 = tail call i32 @H5G__link_name_replace(ptr noundef %18, ptr noundef %20, ptr noundef nonnull %0) #8
  %22 = icmp slt i32 %21, 0
  br i1 %22, label %23, label %27

23:                                               ; preds = %17
  %24 = load i64, ptr @H5E_SYM_g, align 8, !tbaa !10
  %25 = load i64, ptr @H5E_CANTGET_g, align 8, !tbaa !10
  %26 = tail call i32 (ptr, ptr, i32, i64, i64, ptr, ...) @H5E_printf_stack(ptr noundef nonnull @.str, ptr noundef nonnull @__func__.H5G__compact_remove_common_cb, i32 noundef 261, i64 noundef %24, i64 noundef %25, ptr noundef nonnull @.str.11) #8
  br label %27

27:                                               ; preds = %17, %23, %10, %3
  %.0 = phi i32 [ -1, %23 ], [ 0, %10 ], [ 0, %3 ], [ 1, %17 ]
  ret i32 %.0
}